target datalayout = "e-m:e-p270:32:32-p271:32:32-p272:64:64-i64:64-i128:128-f80:128-n8:16:32:64-S128"
target triple = "x86_64-pc-linux-gnu"

%struct.Gia_Man_t_ = type { ptr, ptr, i32, i32, i32, i32, ptr, ptr, i32, i32, i32, ptr, ptr, %struct.Vec_Int_t_, %struct.Vec_Int_t_, i32, i32, i32, %struct.Vec_Int_t_, ptr, ptr, ptr, i32, i32, i32, i32, ptr, ptr, ptr, ptr, ptr, i32, i32, ptr, i32, ptr, ptr, ptr, ptr, ptr, ptr, ptr, ptr, ptr, ptr, ptr, ptr, ptr, ptr, ptr, ptr, ptr, ptr, %struct.Vec_Int_t_, %struct.Vec_Int_t_, ptr, ptr, ptr, ptr, ptr, ptr, ptr, ptr, ptr, ptr, ptr, ptr, ptr, ptr, ptr, ptr, ptr, ptr, ptr, ptr, ptr, i32, float, float, ptr, ptr, i32, ptr, ptr, ptr, ptr, ptr, ptr, ptr, ptr, ptr, ptr, ptr, ptr, ptr, ptr, ptr, i64, i64, ptr, ptr, i32, i32, i32, i32, i32, i32, i32, i32, i32, i32, i32, i32, ptr, ptr, ptr, ptr, ptr, ptr, ptr, ptr, i32, i32, i32, ptr, i32, i32, ptr, ptr, ptr, ptr, ptr, ptr, i32, i32, ptr, %struct.Vec_Int_t_, %struct.Vec_Int_t_, %struct.Vec_Int_t_, ptr, ptr, ptr, i32, i32, i32, i32, ptr, ptr, ptr, ptr, ptr }
%struct.Vec_Int_t_ = type { i32, i32, ptr }
%struct.Gia_Obj_t_ = type <{ i64, i32 }>
%struct.Gia_Rpr_t_ = type { i32 }

@.str.12 = private unnamed_addr constant [63 x i8] c"CI+AND = %7d  A = %7d  B = %7d  Ad = %7d  Bd = %7d  AB = %7d.\0A\00", align 1

; Function Attrs: inlinehint nounwind uwtable
define internal i32 @Gia_ManAndNum(ptr noundef %0) #1 {
  %2 = alloca ptr, align 8
  store ptr %0, ptr %2, align 8, !tbaa !3
  %3 = load ptr, ptr %2, align 8, !tbaa !3
  %4 = getelementptr inbounds nuw %struct.Gia_Man_t_, ptr %3, i32 0, i32 4
  %5 = load i32, ptr %4, align 8, !tbaa !37
  %6 = load ptr, ptr %2, align 8, !tbaa !3
  %7 = getelementptr inbounds nuw %struct.Gia_Man_t_, ptr %6, i32 0, i32 11
  %8 = load ptr, ptr %7, align 8, !tbaa !48
  %9 = call i32 @Vec_IntSize(ptr noundef %8)
  %10 = sub nsw i32 %5, %9
  %11 = load ptr, ptr %2, align 8, !tbaa !3
  %12 = getelementptr inbounds nuw %struct.Gia_Man_t_, ptr %11, i32 0, i32 12
  %13 = load ptr, ptr %12, align 8, !tbaa !51
  %14 = call i32 @Vec_IntSize(ptr noundef %13)
  %15 = sub nsw i32 %10, %14
  %16 = sub nsw i32 %15, 1
  ret i32 %16
}

; Function Attrs: inlinehint nounwind uwtable
define internal i32 @Gia_ManCiNum(ptr noundef %0) #1 {
  %2 = alloca ptr, align 8
  store ptr %0, ptr %2, align 8, !tbaa !3
  %3 = load ptr, ptr %2, align 8, !tbaa !3
  %4 = getelementptr inbounds nuw %struct.Gia_Man_t_, ptr %3, i32 0, i32 11
  %5 = load ptr, ptr %4, align 8, !tbaa !48
  %6 = call i32 @Vec_IntSize(ptr noundef %5)
  ret i32 %6
}

; Function Attrs: inlinehint nounwind uwtable
define internal ptr @Gia_ManObj(ptr noundef %0, i32 noundef %1) #1 {
  %3 = alloca ptr, align 8
  %4 = alloca i32, align 4
  store ptr %0, ptr %3, align 8, !tbaa !3
  store i32 %1, ptr %4, align 4, !tbaa !33
  %5 = load ptr, ptr %3, align 8, !tbaa !3
  %6 = getelementptr inbounds nuw %struct.Gia_Man_t_, ptr %5, i32 0, i32 6
  %7 = load ptr, ptr %6, align 8, !tbaa !43
  %8 = load i32, ptr %4, align 4, !tbaa !33
  %9 = sext i32 %8 to i64
  %10 = getelementptr inbounds %struct.Gia_Obj_t_, ptr %7, i64 %9
  ret ptr %10
}

; Function Attrs: inlinehint nounwind uwtable
define internal i32 @Vec_IntEntry(ptr noundef %0, i32 noundef %1) #1 {
  %3 = alloca ptr, align 8
  %4 = alloca i32, align 4
  store ptr %0, ptr %3, align 8, !tbaa !31
  store i32 %1, ptr %4, align 4, !tbaa !33
  %5 = load ptr, ptr %3, align 8, !tbaa !31
  %6 = getelementptr inbounds nuw %struct.Vec_Int_t_, ptr %5, i32 0, i32 2
  %7 = load ptr, ptr %6, align 8, !tbaa !32
  %8 = load i32, ptr %4, align 4, !tbaa !33
  %9 = sext i32 %8 to i64
  %10 = getelementptr inbounds i32, ptr %7, i64 %9
  %11 = load i32, ptr %10, align 4, !tbaa !33
  ret i32 %11
}

; Function Attrs: inlinehint nounwind uwtable
define internal i32 @Vec_IntSize(ptr noundef %0) #1 {
  %2 = alloca ptr, align 8
  store ptr %0, ptr %2, align 8, !tbaa !31
  %3 = load ptr, ptr %2, align 8, !tbaa !31
  %4 = getelementptr inbounds nuw %struct.Vec_Int_t_, ptr %3, i32 0, i32 1
  %5 = load i32, ptr %4, align 4, !tbaa !34
  ret i32 %5
}

; Function Attrs: inlinehint nounwind uwtable
define internal i32 @Gia_ManCandNum(ptr noundef %0) #1 {
  %2 = alloca ptr, align 8
  store ptr %0, ptr %2, align 8, !tbaa !3
  %3 = load ptr, ptr %2, align 8, !tbaa !3
  %4 = call i32 @Gia_ManCiNum(ptr noundef %3)
  %5 = load ptr, ptr %2, align 8, !tbaa !3
  %6 = call i32 @Gia_ManAndNum(ptr noundef %5)
  %7 = add nsw i32 %4, %6
  ret i32 %7
}

; Function Attrs: inlinehint nounwind uwtable
define internal ptr @Gia_ObjFanin0(ptr noundef %0) #1 {
  %2 = alloca ptr, align 8
  store ptr %0, ptr %2, align 8, !tbaa !38
  %3 = load ptr, ptr %2, align 8, !tbaa !38
  %4 = load ptr, ptr %2, align 8, !tbaa !38
  %5 = load i64, ptr %4, align 4
  %6 = and i64 %5, 536870911
  %7 = trunc i64 %6 to i32
  %8 = sext i32 %7 to i64
  %9 = sub i64 0, %8
  %10 = getelementptr inbounds %struct.Gia_Obj_t_, ptr %3, i64 %9
  ret ptr %10
}

; Function Attrs: inlinehint nounwind uwtable
define internal ptr @Gia_ManCo(ptr noundef %0, i32 noundef %1) #1 {
  %3 = alloca ptr, align 8
  %4 = alloca i32, align 4
  store ptr %0, ptr %3, align 8, !tbaa !3
  store i32 %1, ptr %4, align 4, !tbaa !33
  %5 = load ptr, ptr %3, align 8, !tbaa !3
  %6 = load ptr, ptr %3, align 8, !tbaa !3
  %7 = getelementptr inbounds nuw %struct.Gia_Man_t_, ptr %6, i32 0, i32 12
  %8 = load ptr, ptr %7, align 8, !tbaa !51
  %9 = load i32, ptr %4, align 4, !tbaa !33
  %10 = call i32 @Vec_IntEntry(ptr noundef %8, i32 noundef %9)
  %11 = call ptr @Gia_ManObj(ptr noundef %5, i32 noundef %10)
  ret ptr %11
}

; Function Attrs: inlinehint nounwind uwtable
define internal i32 @Gia_ManPoNum(ptr noundef %0) #1 {
  %2 = alloca ptr, align 8
  store ptr %0, ptr %2, align 8, !tbaa !3
  %3 = load ptr, ptr %2, align 8, !tbaa !3
  %4 = getelementptr inbounds nuw %struct.Gia_Man_t_, ptr %3, i32 0, i32 12
  %5 = load ptr, ptr %4, align 8, !tbaa !51
  %6 = call i32 @Vec_IntSize(ptr noundef %5)
  %7 = load ptr, ptr %2, align 8, !tbaa !3
  %8 = getelementptr inbounds nuw %struct.Gia_Man_t_, ptr %7, i32 0, i32 2
  %9 = load i32, ptr %8, align 8, !tbaa !100
  %10 = sub nsw i32 %6, %9
  ret i32 %10
}

; Function Attrs: inlinehint nounwind uwtable
define internal i32 @Gia_ObjId(ptr noundef %0, ptr noundef %1) #1 {
  %3 = alloca ptr, align 8
  %4 = alloca ptr, align 8
  store ptr %0, ptr %3, align 8, !tbaa !3
  store ptr %1, ptr %4, align 8, !tbaa !38
  %5 = load ptr, ptr %4, align 8, !tbaa !38
  %6 = load ptr, ptr %3, align 8, !tbaa !3
  %7 = getelementptr inbounds nuw %struct.Gia_Man_t_, ptr %6, i32 0, i32 6
  %8 = load ptr, ptr %7, align 8, !tbaa !43
  %9 = ptrtoint ptr %5 to i64
  %10 = ptrtoint ptr %8 to i64
  %11 = sub i64 %9, %10
  %12 = sdiv exact i64 %11, 12
  %13 = trunc i64 %12 to i32
  ret i32 %13
}

; Function Attrs: inlinehint nounwind uwtable
define internal ptr @Gia_ManCi(ptr noundef %0, i32 noundef %1) #1 {
  %3 = alloca ptr, align 8
  %4 = alloca i32, align 4
  store ptr %0, ptr %3, align 8, !tbaa !3
  store i32 %1, ptr %4, align 4, !tbaa !33
  %5 = load ptr, ptr %3, align 8, !tbaa !3
  %6 = load ptr, ptr %3, align 8, !tbaa !3
  %7 = getelementptr inbounds nuw %struct.Gia_Man_t_, ptr %6, i32 0, i32 11
  %8 = load ptr, ptr %7, align 8, !tbaa !48
  %9 = load i32, ptr %4, align 4, !tbaa !33
  %10 = call i32 @Vec_IntEntry(ptr noundef %8, i32 noundef %9)
  %11 = call ptr @Gia_ManObj(ptr noundef %5, i32 noundef %10)
  ret ptr %11
}

; Function Attrs: inlinehint nounwind uwtable
define internal i32 @Gia_ManPiNum(ptr noundef %0) #1 {
  %2 = alloca ptr, align 8
  store ptr %0, ptr %2, align 8, !tbaa !3
  %3 = load ptr, ptr %2, align 8, !tbaa !3
  %4 = getelementptr inbounds nuw %struct.Gia_Man_t_, ptr %3, i32 0, i32 11
  %5 = load ptr, ptr %4, align 8, !tbaa !48
  %6 = call i32 @Vec_IntSize(ptr noundef %5)
  %7 = load ptr, ptr %2, align 8, !tbaa !3
  %8 = getelementptr inbounds nuw %struct.Gia_Man_t_, ptr %7, i32 0, i32 2
  %9 = load i32, ptr %8, align 8, !tbaa !100
  %10 = sub nsw i32 %6, %9
  ret i32 %10
}

; Function Attrs: inlinehint nounwind uwtable
define internal void @Gia_ObjSetColors(ptr noundef %0, i32 noundef %1) #1 {
  %3 = alloca ptr, align 8
  %4 = alloca i32, align 4
  store ptr %0, ptr %3, align 8, !tbaa !3
  store i32 %1, ptr %4, align 4, !tbaa !33
  %5 = load ptr, ptr %3, align 8, !tbaa !3
  %6 = getelementptr inbounds nuw %struct.Gia_Man_t_, ptr %5, i32 0, i32 27
  %7 = load ptr, ptr %6, align 8, !tbaa !53
  %8 = load i32, ptr %4, align 4, !tbaa !33
  %9 = sext i32 %8 to i64
  %10 = getelementptr inbounds %struct.Gia_Rpr_t_, ptr %7, i64 %9
  %11 = load i32, ptr %10, align 4
  %12 = and i32 %11, -1073741825
  %13 = or i32 %12, 1073741824
  store i32 %13, ptr %10, align 4
  %14 = load ptr, ptr %3, align 8, !tbaa !3
  %15 = getelementptr inbounds nuw %struct.Gia_Man_t_, ptr %14, i32 0, i32 27
  %16 = load ptr, ptr %15, align 8, !tbaa !53
  %17 = load i32, ptr %4, align 4, !tbaa !33
  %18 = sext i32 %17 to i64
  %19 = getelementptr inbounds %struct.Gia_Rpr_t_, ptr %16, i64 %18
  %20 = load i32, ptr %19, align 4
  %21 = and i32 %20, 2147483647
  %22 = or i32 %21, -2147483648
  store i32 %22, ptr %19, align 4
  ret void
}

; Function Attrs: nounwind uwtable
define i32 @Gia_ManEquivSetColors(ptr noundef %0, i32 noundef %1) #0 {
  %3 = alloca ptr, align 8
  %4 = alloca i32, align 4
  %5 = alloca ptr, align 8
  %6 = alloca i32, align 4
  %7 = alloca [2 x i32], align 4
  %8 = alloca [2 x i32], align 4
  store ptr %0, ptr %3, align 8, !tbaa !3
  store i32 %1, ptr %4, align 4, !tbaa !33
  call void @llvm.lifetime.start.p0(i64 8, ptr %5) #12
  call void @llvm.lifetime.start.p0(i64 4, ptr %6) #12
  call void @llvm.lifetime.start.p0(i64 8, ptr %7) #12
  call void @llvm.lifetime.start.p0(i64 8, ptr %8) #12
  %9 = load ptr, ptr %3, align 8, !tbaa !3
  call void @Gia_ObjSetColors(ptr noundef %9, i32 noundef 0)
  store i32 0, ptr %6, align 4, !tbaa !33
  br label %10

10:                                               ; preds = %27, %2
  %11 = load i32, ptr %6, align 4, !tbaa !33
  %12 = load ptr, ptr %3, align 8, !tbaa !3
  %13 = call i32 @Gia_ManPiNum(ptr noundef %12)
  %14 = icmp slt i32 %11, %13
  br i1 %14, label %15, label %20

15:                                               ; preds = %10
  %16 = load ptr, ptr %3, align 8, !tbaa !3
  %17 = load i32, ptr %6, align 4, !tbaa !33
  %18 = call ptr @Gia_ManCi(ptr noundef %16, i32 noundef %17)
  store ptr %18, ptr %5, align 8, !tbaa !38
  %19 = icmp ne ptr %18, null
  br label %20

20:                                               ; preds = %15, %10
  %21 = phi i1 [ false, %10 ], [ %19, %15 ]
  br i1 %21, label %22, label %30

22:                                               ; preds = %20
  %23 = load ptr, ptr %3, align 8, !tbaa !3
  %24 = load ptr, ptr %3, align 8, !tbaa !3
  %25 = load ptr, ptr %5, align 8, !tbaa !38
  %26 = call i32 @Gia_ObjId(ptr noundef %24, ptr noundef %25)
  call void @Gia_ObjSetColors(ptr noundef %23, i32 noundef %26)
  br label %27

27:                                               ; preds = %22
  %28 = load i32, ptr %6, align 4, !tbaa !33
  %29 = add nsw i32 %28, 1
  store i32 %29, ptr %6, align 4, !tbaa !33
  br label %10, !llvm.loop !101

30:                                               ; preds = %20
  %31 = load ptr, ptr %3, align 8, !tbaa !3
  %32 = call i32 @Gia_ManPiNum(ptr noundef %31)
  %33 = getelementptr inbounds [2 x i32], ptr %7, i64 0, i64 1
  store i32 %32, ptr %33, align 4, !tbaa !33
  %34 = getelementptr inbounds [2 x i32], ptr %7, i64 0, i64 0
  store i32 %32, ptr %34, align 4, !tbaa !33
  store i32 0, ptr %6, align 4, !tbaa !33
  br label %35

35:                                               ; preds = %60, %30
  %36 = load i32, ptr %6, align 4, !tbaa !33
  %37 = load ptr, ptr %3, align 8, !tbaa !3
  %38 = call i32 @Gia_ManPoNum(ptr noundef %37)
  %39 = icmp slt i32 %36, %38
  br i1 %39, label %40, label %45

40:                                               ; preds = %35
  %41 = load ptr, ptr %3, align 8, !tbaa !3
  %42 = load i32, ptr %6, align 4, !tbaa !33
  %43 = call ptr @Gia_ManCo(ptr noundef %41, i32 noundef %42)
  store ptr %43, ptr %5, align 8, !tbaa !38
  %44 = icmp ne ptr %43, null
  br label %45

45:                                               ; preds = %40, %35
  %46 = phi i1 [ false, %35 ], [ %44, %40 ]
  br i1 %46, label %47, label %63

47:                                               ; preds = %45
  %48 = load ptr, ptr %3, align 8, !tbaa !3
  %49 = load ptr, ptr %5, align 8, !tbaa !38
  %50 = call ptr @Gia_ObjFanin0(ptr noundef %49)
  %51 = load i32, ptr %6, align 4, !tbaa !33
  %52 = and i32 %51, 1
  %53 = call i32 @Gia_ManEquivSetColor_rec(ptr noundef %48, ptr noundef %50, i32 noundef %52)
  %54 = load i32, ptr %6, align 4, !tbaa !33
  %55 = and i32 %54, 1
  %56 = sext i32 %55 to i64
  %57 = getelementptr inbounds [2 x i32], ptr %7, i64 0, i64 %56
  %58 = load i32, ptr %57, align 4, !tbaa !33
  %59 = add nsw i32 %58, %53
  store i32 %59, ptr %57, align 4, !tbaa !33
  br label %60

60:                                               ; preds = %47
  %61 = load i32, ptr %6, align 4, !tbaa !33
  %62 = add nsw i32 %61, 1
  store i32 %62, ptr %6, align 4, !tbaa !33
  br label %35, !llvm.loop !102

63:                                               ; preds = %45
  %64 = load ptr, ptr %3, align 8, !tbaa !3
  %65 = call i32 @Gia_ManCandNum(ptr noundef %64)
  %66 = getelementptr inbounds [2 x i32], ptr %7, i64 0, i64 0
  %67 = load i32, ptr %66, align 4, !tbaa !33
  %68 = sub nsw i32 %65, %67
  %69 = getelementptr inbounds [2 x i32], ptr %8, i64 0, i64 0
  store i32 %68, ptr %69, align 4, !tbaa !33
  %70 = load ptr, ptr %3, align 8, !tbaa !3
  %71 = call i32 @Gia_ManCandNum(ptr noundef %70)
  %72 = getelementptr inbounds [2 x i32], ptr %7, i64 0, i64 1
  %73 = load i32, ptr %72, align 4, !tbaa !33
  %74 = sub nsw i32 %71, %73
  %75 = getelementptr inbounds [2 x i32], ptr %8, i64 0, i64 1
  store i32 %74, ptr %75, align 4, !tbaa !33
  %76 = load i32, ptr %4, align 4, !tbaa !33
  %77 = icmp ne i32 %76, 0
  br i1 %77, label %78, label %97

78:                                               ; preds = %63
  %79 = load ptr, ptr %3, align 8, !tbaa !3
  %80 = call i32 @Gia_ManCandNum(ptr noundef %79)
  %81 = getelementptr inbounds [2 x i32], ptr %7, i64 0, i64 0
  %82 = load i32, ptr %81, align 4, !tbaa !33
  %83 = getelementptr inbounds [2 x i32], ptr %7, i64 0, i64 1
  %84 = load i32, ptr %83, align 4, !tbaa !33
  %85 = getelementptr inbounds [2 x i32], ptr %8, i64 0, i64 0
  %86 = load i32, ptr %85, align 4, !tbaa !33
  %87 = getelementptr inbounds [2 x i32], ptr %8, i64 0, i64 1
  %88 = load i32, ptr %87, align 4, !tbaa !33
  %89 = load ptr, ptr %3, align 8, !tbaa !3
  %90 = call i32 @Gia_ManCandNum(ptr noundef %89)
  %91 = getelementptr inbounds [2 x i32], ptr %8, i64 0, i64 0
  %92 = load i32, ptr %91, align 4, !tbaa !33
  %93 = sub nsw i32 %90, %92
  %94 = getelementptr inbounds [2 x i32], ptr %8, i64 0, i64 1
  %95 = load i32, ptr %94, align 4, !tbaa !33
  %96 = sub nsw i32 %93, %95
  call void (i32, ptr, ...) @Abc_Print(i32 noundef 1, ptr noundef @.str.12, i32 noundef %80, i32 noundef %82, i32 noundef %84, i32 noundef %86, i32 noundef %88, i32 noundef %96)
  br label %97

97:                                               ; preds = %78, %63
  %98 = getelementptr inbounds [2 x i32], ptr %8, i64 0, i64 0
  %99 = load i32, ptr %98, align 4, !tbaa !33
  %100 = getelementptr inbounds [2 x i32], ptr %8, i64 0, i64 1
  %101 = load i32, ptr %100, align 4, !tbaa !33
  %102 = add nsw i32 %99, %101
  %103 = sdiv i32 %102, 2
  call void @llvm.lifetime.end.p0(i64 8, ptr %8) #12
  call void @llvm.lifetime.end.p0(i64 8, ptr %7) #12
  call void @llvm.lifetime.end.p0(i64 4, ptr %6) #12
  call void @llvm.lifetime.end.p0(i64 8, ptr %5) #12
  ret i32 %103
}