; Function Attrs: nounwind uwtable
define range(i32 -1073741824, 1073741824) i32 @Gia_ManEquivSetColors(ptr noundef %0, i32 noundef %1) local_unnamed_addr #0 {
  %3 = alloca [2 x i32], align 4
  call void @llvm.lifetime.start.p0(i64 8, ptr nonnull %3) #31
  %4 = getelementptr inbounds nuw i8, ptr %0, i64 192
  %5 = load ptr, ptr %4, align 8, !tbaa !49
  %6 = load i32, ptr %5, align 4
  %7 = or i32 %6, 1073741824
  store i32 %7, ptr %5, align 4
  %8 = load ptr, ptr %4, align 8, !tbaa !49
  %9 = load i32, ptr %8, align 4
  %10 = or i32 %9, -2147483648
  store i32 %10, ptr %8, align 4
  %11 = getelementptr i8, ptr %0, i64 32
  %12 = getelementptr i8, ptr %0, i64 16
  %13 = getelementptr i8, ptr %0, i64 64
  %.val3956 = load i32, ptr %12, align 8, !tbaa !90
  %.val4057 = load ptr, ptr %13, align 8, !tbaa !44
  %14 = getelementptr i8, ptr %.val4057, i64 4
  %.val40.val58 = load i32, ptr %14, align 4, !tbaa !31
  %15 = sub nsw i32 %.val40.val58, %.val3956
  %16 = icmp sgt i32 %15, 0
  br i1 %16, label %.lr.ph.preheader, label %.critedge

.lr.ph.preheader:                                 ; preds = %2
  %.val84 = load ptr, ptr %11, align 8, !tbaa !36
  %.not85 = icmp eq ptr %.val84, null
  br i1 %.not85, label %.critedge, label %.lr.ph88

.lr.ph:                                           ; preds = %.lr.ph88
  %.val = load ptr, ptr %11, align 8, !tbaa !36
  %.not = icmp eq ptr %.val, null
  br i1 %.not, label %.critedge, label %.lr.ph88, !llvm.loop !95

.lr.ph88:                                         ; preds = %.lr.ph.preheader, %.lr.ph
  %.val406087 = phi ptr [ %.val40, %.lr.ph ], [ %.val4057, %.lr.ph.preheader ]
  %indvars.iv86 = phi i64 [ %indvars.iv.next, %.lr.ph ], [ 0, %.lr.ph.preheader ]
  %17 = getelementptr i8, ptr %.val406087, i64 8
  %.val33.val = load ptr, ptr %17, align 8, !tbaa !8
  %18 = getelementptr inbounds nuw i32, ptr %.val33.val, i64 %indvars.iv86
  %19 = load i32, ptr %18, align 4, !tbaa !32
  %20 = load ptr, ptr %4, align 8, !tbaa !49
  %21 = sext i32 %19 to i64
  %22 = getelementptr inbounds %struct.Gia_Rpr_t_, ptr %20, i64 %21
  %23 = load i32, ptr %22, align 4
  %24 = or i32 %23, 1073741824
  store i32 %24, ptr %22, align 4
  %25 = load ptr, ptr %4, align 8, !tbaa !49
  %26 = getelementptr inbounds %struct.Gia_Rpr_t_, ptr %25, i64 %21
  %27 = load i32, ptr %26, align 4
  %28 = or i32 %27, -2147483648
  store i32 %28, ptr %26, align 4
  %indvars.iv.next = add nuw nsw i64 %indvars.iv86, 1
  %.val39 = load i32, ptr %12, align 8, !tbaa !90
  %.val40 = load ptr, ptr %13, align 8, !tbaa !44
  %29 = getelementptr i8, ptr %.val40, i64 4
  %.val40.val = load i32, ptr %29, align 4, !tbaa !31
  %30 = sub nsw i32 %.val40.val, %.val39
  %31 = sext i32 %30 to i64
  %32 = icmp slt i64 %indvars.iv.next, %31
  br i1 %32, label %.lr.ph, label %.critedge, !llvm.loop !95

.critedge:                                        ; preds = %.lr.ph88, %.lr.ph, %.lr.ph.preheader, %2
  %.val.i81 = phi ptr [ %.val4057, %2 ], [ %.val4057, %.lr.ph.preheader ], [ %.val40, %.lr.ph ], [ %.val40, %.lr.ph88 ]
  %.val3763 = phi i32 [ %.val3956, %2 ], [ %.val3956, %.lr.ph.preheader ], [ %.val39, %.lr.ph ], [ %.val39, %.lr.ph88 ]
  %.lcssa = phi i32 [ %15, %2 ], [ %15, %.lr.ph.preheader ], [ %30, %.lr.ph ], [ %30, %.lr.ph88 ]
  %33 = getelementptr inbounds nuw i8, ptr %3, i64 4
  store i32 %.lcssa, ptr %33, align 4, !tbaa !32
  store i32 %.lcssa, ptr %3, align 4, !tbaa !32
  %34 = getelementptr i8, ptr %0, i64 72
  %.val3864 = load ptr, ptr %34, align 8, !tbaa !47
  %35 = getelementptr i8, ptr %.val3864, i64 4
  %.val38.val65 = load i32, ptr %35, align 4, !tbaa !31
  %36 = icmp sgt i32 %.val38.val65, %.val3763
  br i1 %36, label %.lr.ph69.preheader, label %.critedge2

.lr.ph69.preheader:                               ; preds = %.critedge
  %.val3594 = load ptr, ptr %11, align 8, !tbaa !36
  %.not3195 = icmp eq ptr %.val3594, null
  br i1 %.not3195, label %.critedge2.loopexit, label %.lr.ph99

.lr.ph69:                                         ; preds = %.lr.ph99
  %.val35 = load ptr, ptr %11, align 8, !tbaa !36
  %.not31 = icmp eq ptr %.val35, null
  br i1 %.not31, label %.critedge2.loopexit, label %.lr.ph99, !llvm.loop !96

.lr.ph99:                                         ; preds = %.lr.ph69.preheader, %.lr.ph69
  %.val3598 = phi ptr [ %.val35, %.lr.ph69 ], [ %.val3594, %.lr.ph69.preheader ]
  %.val386797 = phi ptr [ %.val38, %.lr.ph69 ], [ %.val3864, %.lr.ph69.preheader ]
  %indvars.iv7496 = phi i64 [ %indvars.iv.next75, %.lr.ph69 ], [ 0, %.lr.ph69.preheader ]
  %37 = getelementptr i8, ptr %.val386797, i64 8
  %.val36.val = load ptr, ptr %37, align 8, !tbaa !8
  %38 = getelementptr inbounds nuw i32, ptr %.val36.val, i64 %indvars.iv7496
  %39 = load i32, ptr %38, align 4, !tbaa !32
  %40 = sext i32 %39 to i64
  %41 = getelementptr inbounds %struct.Gia_Obj_t_, ptr %.val3598, i64 %40
  %42 = load i64, ptr %41, align 4
  %43 = and i64 %42, 536870911
  %44 = sub nsw i64 0, %43
  %45 = getelementptr inbounds %struct.Gia_Obj_t_, ptr %41, i64 %44
  %46 = trunc nuw nsw i64 %indvars.iv7496 to i32
  %47 = and i32 %46, 1
  %48 = tail call i32 @Gia_ManEquivSetColor_rec(ptr noundef nonnull %0, ptr noundef nonnull %45, i32 noundef %47)
  %49 = and i64 %indvars.iv7496, 1
  %50 = getelementptr inbounds nuw [2 x i32], ptr %3, i64 0, i64 %49
  %51 = load i32, ptr %50, align 4, !tbaa !32
  %52 = add nsw i32 %51, %48
  store i32 %52, ptr %50, align 4, !tbaa !32
  %indvars.iv.next75 = add nuw nsw i64 %indvars.iv7496, 1
  %.val37 = load i32, ptr %12, align 8, !tbaa !90
  %.val38 = load ptr, ptr %34, align 8, !tbaa !47
  %53 = getelementptr i8, ptr %.val38, i64 4
  %.val38.val = load i32, ptr %53, align 4, !tbaa !31
  %54 = sub nsw i32 %.val38.val, %.val37
  %55 = sext i32 %54 to i64
  %56 = icmp slt i64 %indvars.iv.next75, %55
  br i1 %56, label %.lr.ph69, label %.critedge2.loopexit, !llvm.loop !96

.critedge2.loopexit:                              ; preds = %.lr.ph69, %.lr.ph99, %.lr.ph69.preheader
  %.val38.val.lcssa.ph = phi i32 [ %.val38.val65, %.lr.ph69.preheader ], [ %.val38.val, %.lr.ph99 ], [ %.val38.val, %.lr.ph69 ]
  %.val.i.pre = load ptr, ptr %13, align 8, !tbaa !44
  %.pre = load i32, ptr %3, align 4, !tbaa !32
  %.pre83 = load i32, ptr %33, align 4, !tbaa !32
  br label %.critedge2

.critedge2:                                       ; preds = %.critedge2.loopexit, %.critedge
  %57 = phi i32 [ %.lcssa, %.critedge ], [ %.pre83, %.critedge2.loopexit ]
  %58 = phi i32 [ %.lcssa, %.critedge ], [ %.pre, %.critedge2.loopexit ]
  %.val.i = phi ptr [ %.val.i81, %.critedge ], [ %.val.i.pre, %.critedge2.loopexit ]
  %.val38.val.lcssa = phi i32 [ %.val38.val65, %.critedge ], [ %.val38.val.lcssa.ph, %.critedge2.loopexit ]
  %59 = getelementptr i8, ptr %.val.i, i64 4
  %.val.val.i = load i32, ptr %59, align 4, !tbaa !31
  %60 = getelementptr inbounds nuw i8, ptr %0, i64 24
  %61 = load i32, ptr %60, align 8, !tbaa !12
  %62 = add i32 %.val.val.i, %.val38.val.lcssa
  %63 = xor i32 %62, -1
  %64 = add i32 %61, %.val.val.i
  %65 = add i32 %64, %63
  %66 = sub nsw i32 %65, %58
  %67 = sub nsw i32 %65, %57
  %.not32 = icmp eq i32 %1, 0
  br i1 %.not32, label %70, label %68

68:                                               ; preds = %.critedge2
  %69 = sub i32 %57, %66
  tail call void (i32, ptr, ...) @Abc_Print(i32 noundef 1, ptr noundef nonnull @.str.12, i32 noundef %65, i32 noundef %58, i32 noundef %57, i32 noundef %66, i32 noundef %67, i32 noundef %69)
  br label %70

70:                                               ; preds = %68, %.critedge2
  %71 = add nsw i32 %66, %67
  %72 = sdiv i32 %71, 2
  call void @llvm.lifetime.end.p0(i64 8, ptr nonnull %3) #31
  ret i32 %72
}